; Function Attrs: mustprogress uwtable
define dso_local void @_ZN14cmConfigureLog10WriteValueESt17basic_string_viewIcSt11char_traitsIcEEi(ptr noundef nonnull align 8 dereferenceable(584) %0, i64 %1, ptr %2, i32 noundef %3) local_unnamed_addr #5 align 2 {
  %5 = getelementptr inbounds nuw i8, ptr %0, i64 568
  %6 = load i32, ptr %5, align 8, !tbaa !20
  %.not.i = icmp eq i32 %6, 0
  br i1 %.not.i, label %_ZN14cmConfigureLog9BeginLineEv.exit, label %.lr.ph.i

.lr.ph.i:                                         ; preds = %4
  %7 = getelementptr inbounds nuw i8, ptr %0, i64 56
  br label %8

8:                                                ; preds = %8, %.lr.ph.i
  %.02.i = phi i32 [ 0, %.lr.ph.i ], [ %10, %8 ]
  %9 = tail call noundef nonnull align 8 dereferenceable(8) ptr @_ZSt16__ostream_insertIcSt11char_traitsIcEERSt13basic_ostreamIT_T0_ES6_PKS3_l(ptr noundef nonnull align 8 dereferenceable(8) %7, ptr noundef nonnull @.str.9, i64 noundef 2)
  %10 = add nuw i32 %.02.i, 1
  %11 = load i32, ptr %5, align 8, !tbaa !20
  %12 = icmp ult i32 %10, %11
  br i1 %12, label %8, label %_ZN14cmConfigureLog9BeginLineEv.exit, !llvm.loop !94

_ZN14cmConfigureLog9BeginLineEv.exit:             ; preds = %8, %4
  %13 = getelementptr inbounds nuw i8, ptr %0, i64 56
  %14 = tail call noundef nonnull align 8 dereferenceable(8) ptr @_ZSt16__ostream_insertIcSt11char_traitsIcEERSt13basic_ostreamIT_T0_ES6_PKS3_l(ptr noundef nonnull align 8 dereferenceable(8) %13, ptr noundef %2, i64 noundef %1)
  %15 = tail call noundef nonnull align 8 dereferenceable(8) ptr @_ZSt16__ostream_insertIcSt11char_traitsIcEERSt13basic_ostreamIT_T0_ES6_PKS3_l(ptr noundef nonnull align 8 dereferenceable(8) %14, ptr noundef nonnull @.str.12, i64 noundef 2)
  %16 = tail call noundef nonnull align 8 dereferenceable(8) ptr @_ZNSolsEi(ptr noundef nonnull align 8 dereferenceable(8) %14, i32 noundef %3)
  %17 = load ptr, ptr %13, align 8, !tbaa !52
  %18 = getelementptr i8, ptr %17, i64 -24
  %19 = load i64, ptr %18, align 8
  %20 = getelementptr inbounds i8, ptr %13, i64 %19
  %21 = getelementptr inbounds nuw i8, ptr %20, i64 240
  %22 = load ptr, ptr %21, align 8, !tbaa !95
  %.not.i.i.i.i = icmp eq ptr %22, null
  br i1 %.not.i.i.i.i, label %23, label %_ZSt13__check_facetISt5ctypeIcEERKT_PS3_.exit.i.i.i

23:                                               ; preds = %_ZN14cmConfigureLog9BeginLineEv.exit
  tail call void @_ZSt16__throw_bad_castv() #24
  unreachable

_ZSt13__check_facetISt5ctypeIcEERKT_PS3_.exit.i.i.i: ; preds = %_ZN14cmConfigureLog9BeginLineEv.exit
  %24 = getelementptr inbounds nuw i8, ptr %22, i64 56
  %25 = load i8, ptr %24, align 8, !tbaa !108
  %.not.i1.i.i.i = icmp eq i8 %25, 0
  br i1 %.not.i1.i.i.i, label %29, label %26

26:                                               ; preds = %_ZSt13__check_facetISt5ctypeIcEERKT_PS3_.exit.i.i.i
  %27 = getelementptr inbounds nuw i8, ptr %22, i64 67
  %28 = load i8, ptr %27, align 1, !tbaa !14
  br label %_ZN14cmConfigureLog7EndLineEv.exit

29:                                               ; preds = %_ZSt13__check_facetISt5ctypeIcEERKT_PS3_.exit.i.i.i
  tail call void @_ZNKSt5ctypeIcE13_M_widen_initEv(ptr noundef nonnull align 8 dereferenceable(570) %22)
  %30 = load ptr, ptr %22, align 8, !tbaa !52
  %31 = getelementptr inbounds nuw i8, ptr %30, i64 48
  %32 = load ptr, ptr %31, align 8
  %33 = tail call noundef signext i8 %32(ptr noundef nonnull align 8 dereferenceable(570) %22, i8 noundef signext 10)
  br label %_ZN14cmConfigureLog7EndLineEv.exit

_ZN14cmConfigureLog7EndLineEv.exit:               ; preds = %26, %29
  %.0.i.i.i.i = phi i8 [ %28, %26 ], [ %33, %29 ]
  %34 = tail call noundef nonnull align 8 dereferenceable(8) ptr @_ZNSo3putEc(ptr noundef nonnull align 8 dereferenceable(8) %13, i8 noundef signext %.0.i.i.i.i)
  %35 = tail call noundef nonnull align 8 dereferenceable(8) ptr @_ZNSo5flushEv(ptr noundef nonnull align 8 dereferenceable(8) %34)
  ret void
}